target datalayout = "e-m:e-p270:32:32-p271:32:32-p272:64:64-i64:64-i128:128-f80:128-n8:16:32:64-S128"
target triple = "x86_64-pc-linux-gnu"

%"class.std::__shared_count" = type { ptr }
%"class.std::shared_ptr.0" = type { %"class.std::__shared_ptr.1" }
%"class.std::__shared_ptr.1" = type { ptr, %"class.std::__shared_count" }
%"class.pxrInternal_v0_24__pxrReserved__::GfMatrix4d" = type { %"class.pxrInternal_v0_24__pxrReserved__::GfMatrixData" }
%"class.pxrInternal_v0_24__pxrReserved__::GfMatrixData" = type { [16 x double] }
%"class.pxrInternal_v0_24__pxrReserved__::HdTypedSampledDataSource.17" = type { %"class.pxrInternal_v0_24__pxrReserved__::HdSampledDataSource" }
%"class.pxrInternal_v0_24__pxrReserved__::HdSampledDataSource" = type { %"class.pxrInternal_v0_24__pxrReserved__::HdDataSourceBase" }
%"class.pxrInternal_v0_24__pxrReserved__::HdDataSourceBase" = type { ptr }
%"class.pxrInternal_v0_24__pxrReserved__::(anonymous namespace)::_MatrixCombinerDataSource" = type { %"class.pxrInternal_v0_24__pxrReserved__::HdTypedSampledDataSource.17", %"class.std::shared_ptr.0", %"class.std::shared_ptr.0", %"class.pxrInternal_v0_24__pxrReserved__::GfMatrix4d" }

; Function Attrs: mustprogress nounwind uwtable
define linkonce_odr noundef ptr @_ZNKSt12__shared_ptrIN32pxrInternal_v0_24__pxrReserved__24HdTypedSampledDataSourceINS0_10GfMatrix4dEEELN9__gnu_cxx12_Lock_policyE2EE3getEv(ptr noundef nonnull align 8 dereferenceable(16) %0) #3 comdat align 2 {
  %2 = alloca ptr, align 8
  store ptr %0, ptr %2, align 8
  %3 = load ptr, ptr %2, align 8
  %4 = getelementptr inbounds nuw %"class.std::__shared_ptr.1", ptr %3, i32 0, i32 0
  %5 = load ptr, ptr %4, align 8
  ret ptr %5
}

; Function Attrs: mustprogress nounwind uwtable
define linkonce_odr noundef ptr @_ZNKSt19__shared_ptr_accessIN32pxrInternal_v0_24__pxrReserved__24HdTypedSampledDataSourceINS0_10GfMatrix4dEEELN9__gnu_cxx12_Lock_policyE2ELb0ELb0EE6_M_getEv(ptr noundef nonnull align 1 dereferenceable(1) %0) #3 comdat align 2 {
  %2 = alloca ptr, align 8
  store ptr %0, ptr %2, align 8
  %3 = load ptr, ptr %2, align 8
  %4 = call noundef ptr @_ZNKSt12__shared_ptrIN32pxrInternal_v0_24__pxrReserved__24HdTypedSampledDataSourceINS0_10GfMatrix4dEEELN9__gnu_cxx12_Lock_policyE2EE3getEv(ptr noundef nonnull align 8 dereferenceable(16) %3) #1
  ret ptr %4
}

; Function Attrs: mustprogress uwtable
define linkonce_odr void @_ZN32pxrInternal_v0_24__pxrReserved__mlERKNS_10GfMatrix4dES2_(ptr dead_on_unwind noalias writable sret(%"class.pxrInternal_v0_24__pxrReserved__::GfMatrix4d") align 8 %0, ptr noundef nonnull align 8 dereferenceable(128) %1, ptr noundef nonnull align 8 dereferenceable(128) %2) #0 comdat {
  %4 = alloca ptr, align 8
  %5 = alloca ptr, align 8
  store ptr %1, ptr %4, align 8
  store ptr %2, ptr %5, align 8
  %6 = load ptr, ptr %4, align 8
  call void @llvm.memcpy.p0.p0.i64(ptr align 8 %0, ptr align 8 %6, i64 128, i1 false)
  %7 = load ptr, ptr %5, align 8
  %8 = call noundef nonnull align 8 dereferenceable(128) ptr @_ZN32pxrInternal_v0_24__pxrReserved__10GfMatrix4dmLERKS0_(ptr noundef nonnull align 8 dereferenceable(128) %0, ptr noundef nonnull align 8 dereferenceable(128) %7)
  ret void
}

; Function Attrs: mustprogress nounwind uwtable
define linkonce_odr noundef ptr @_ZNKSt19__shared_ptr_accessIN32pxrInternal_v0_24__pxrReserved__24HdTypedSampledDataSourceINS0_10GfMatrix4dEEELN9__gnu_cxx12_Lock_policyE2ELb0ELb0EEptEv(ptr noundef nonnull align 1 dereferenceable(1) %0) #3 comdat align 2 {
  %2 = alloca ptr, align 8
  store ptr %0, ptr %2, align 8
  %3 = load ptr, ptr %2, align 8
  %4 = call noundef ptr @_ZNKSt19__shared_ptr_accessIN32pxrInternal_v0_24__pxrReserved__24HdTypedSampledDataSourceINS0_10GfMatrix4dEEELN9__gnu_cxx12_Lock_policyE2ELb0ELb0EE6_M_getEv(ptr noundef nonnull align 1 dereferenceable(1) %3) #1
  ret ptr %4
}

; Function Attrs: mustprogress uwtable
define internal void @_ZN32pxrInternal_v0_24__pxrReserved__12_GLOBAL__N_125_MatrixCombinerDataSource13GetTypedValueEf(ptr dead_on_unwind noalias writable sret(%"class.pxrInternal_v0_24__pxrReserved__::GfMatrix4d") align 8 %0, ptr noundef nonnull align 8 dereferenceable(168) %1, float noundef %2) unnamed_addr #0 align 2 {
  %4 = alloca ptr, align 8
  %5 = alloca float, align 4
  %6 = alloca %"class.pxrInternal_v0_24__pxrReserved__::GfMatrix4d", align 8
  %7 = alloca %"class.pxrInternal_v0_24__pxrReserved__::GfMatrix4d", align 8
  store ptr %1, ptr %4, align 8
  store float %2, ptr %5, align 4
  %8 = load ptr, ptr %4, align 8
  %9 = load float, ptr %5, align 4
  %10 = fcmp oeq float %9, 0.000000e+00
  br i1 %10, label %11, label %13

11:                                               ; preds = %3
  %12 = getelementptr inbounds nuw %"class.pxrInternal_v0_24__pxrReserved__::(anonymous namespace)::_MatrixCombinerDataSource", ptr %8, i32 0, i32 3
  call void @llvm.memcpy.p0.p0.i64(ptr align 8 %0, ptr align 8 %12, i64 128, i1 false)
  br label %26

13:                                               ; preds = %3
  %14 = getelementptr inbounds nuw %"class.pxrInternal_v0_24__pxrReserved__::(anonymous namespace)::_MatrixCombinerDataSource", ptr %8, i32 0, i32 2
  %15 = call noundef ptr @_ZNKSt19__shared_ptr_accessIN32pxrInternal_v0_24__pxrReserved__24HdTypedSampledDataSourceINS0_10GfMatrix4dEEELN9__gnu_cxx12_Lock_policyE2ELb0ELb0EEptEv(ptr noundef nonnull align 1 dereferenceable(1) %14) #1
  %16 = load float, ptr %5, align 4
  %17 = load ptr, ptr %15, align 8
  %18 = getelementptr inbounds ptr, ptr %17, i64 4
  %19 = load ptr, ptr %18, align 8
  call void %19(ptr dead_on_unwind writable sret(%"class.pxrInternal_v0_24__pxrReserved__::GfMatrix4d") align 8 %6, ptr noundef nonnull align 8 dereferenceable(8) %15, float noundef %16)
  %20 = getelementptr inbounds nuw %"class.pxrInternal_v0_24__pxrReserved__::(anonymous namespace)::_MatrixCombinerDataSource", ptr %8, i32 0, i32 1
  %21 = call noundef ptr @_ZNKSt19__shared_ptr_accessIN32pxrInternal_v0_24__pxrReserved__24HdTypedSampledDataSourceINS0_10GfMatrix4dEEELN9__gnu_cxx12_Lock_policyE2ELb0ELb0EEptEv(ptr noundef nonnull align 1 dereferenceable(1) %20) #1
  %22 = load float, ptr %5, align 4
  %23 = load ptr, ptr %21, align 8
  %24 = getelementptr inbounds ptr, ptr %23, i64 4
  %25 = load ptr, ptr %24, align 8
  call void %25(ptr dead_on_unwind writable sret(%"class.pxrInternal_v0_24__pxrReserved__::GfMatrix4d") align 8 %7, ptr noundef nonnull align 8 dereferenceable(8) %21, float noundef %22)
  call void @_ZN32pxrInternal_v0_24__pxrReserved__mlERKNS_10GfMatrix4dES2_(ptr dead_on_unwind writable sret(%"class.pxrInternal_v0_24__pxrReserved__::GfMatrix4d") align 8 %0, ptr noundef nonnull align 8 dereferenceable(128) %6, ptr noundef nonnull align 8 dereferenceable(128) %7)
  br label %26

26:                                               ; preds = %13, %11
  ret void
}